target datalayout = "e-m:e-p270:32:32-p271:32:32-p272:64:64-i64:64-i128:128-f80:128-n8:16:32:64-S128"
target triple = "x86_64-pc-linux-gnu"

%class.QFlags = type { i32 }
%class.CaptureFileDialog = type <{ %class.WiresharkFileDialog, ptr, %class.QVBoxLayout, %class.QVBoxLayout, ptr, i32, [4 x i8], %class.QLabel, %class.QLabel, %class.QLabel, %class.QList, %class.QRadioButton, %class.QRadioButton, %class.QRadioButton, %class.QComboBox, %class.QHash, %class.QHash.0, i32, [4 x i8], %class.QCheckBox, %class.PacketRangeGroupBox, ptr, i32, [4 x i8] }>
%class.WiresharkFileDialog = type { %class.QFileDialog }
%class.QFileDialog = type { %class.QDialog }
%class.QDialog = type { %class.QWidget }
%class.QWidget = type { %class.QObject, %class.QPaintDevice.base, ptr }
%class.QObject = type { ptr, %class.QScopedPointer }
%class.QScopedPointer = type { ptr }
%class.QPaintDevice.base = type <{ ptr, i16 }>
%class.QVBoxLayout = type { %class.QBoxLayout.base, [4 x i8] }
%class.QBoxLayout.base = type { %class.QLayout.base }
%class.QLayout.base = type <{ %class.QObject, %class.QLayoutItem.base }>
%class.QLayoutItem.base = type <{ ptr, %class.QFlags }>
%class.QLabel = type { %class.QFrame }
%class.QFrame = type { %class.QWidget }
%class.QList = type { %struct.QArrayDataPointer }
%struct.QArrayDataPointer = type { ptr, ptr, i64 }
%class.QRadioButton = type { %class.QAbstractButton }
%class.QAbstractButton = type { %class.QWidget }
%class.QComboBox = type { %class.QWidget }
%class.QHash = type { ptr }
%class.QHash.0 = type { ptr }
%class.QCheckBox = type { %class.QAbstractButton }
%class.PacketRangeGroupBox = type <{ %class.QGroupBox, ptr, ptr, i32, [4 x i8] }>
%class.QGroupBox = type { %class.QWidget }

; Function Attrs: mustprogress uwtable
define noundef i32 @_ZN17CaptureFileDialog9mergeTypeEv(ptr noundef nonnull align 8 dereferenceable(572) %0) #0 align 2 {
  %2 = alloca i32, align 4
  %3 = alloca ptr, align 8
  store ptr %0, ptr %3, align 8
  %4 = load ptr, ptr %3, align 8
  %5 = getelementptr inbounds %class.CaptureFileDialog, ptr %4, i32 0, i32 11
  %6 = call noundef zeroext i1 @_ZNK15QAbstractButton9isCheckedEv(ptr noundef nonnull align 8 dereferenceable(40) %5)
  br i1 %6, label %7, label %8

7:                                                ; preds = %1
  store i32 -1, ptr %2, align 4
  br label %14

8:                                                ; preds = %1
  %9 = getelementptr inbounds %class.CaptureFileDialog, ptr %4, i32 0, i32 13
  %10 = call noundef zeroext i1 @_ZNK15QAbstractButton9isCheckedEv(ptr noundef nonnull align 8 dereferenceable(40) %9)
  br i1 %10, label %11, label %12

11:                                               ; preds = %8
  store i32 1, ptr %2, align 4
  br label %14

12:                                               ; preds = %8
  br label %13

13:                                               ; preds = %12
  store i32 0, ptr %2, align 4
  br label %14

14:                                               ; preds = %13, %11, %7
  %15 = load i32, ptr %2, align 4
  ret i32 %15
}