; Function Attrs: mustprogress uwtable
define noundef i32 @_ZN17CaptureFileDialog9mergeTypeEv(ptr noundef nonnull align 8 dereferenceable(572) %0) local_unnamed_addr #0 align 2 {
  %2 = getelementptr inbounds i8, ptr %0, i64 272
  %3 = tail call noundef zeroext i1 @_ZNK15QAbstractButton9isCheckedEv(ptr noundef nonnull align 8 dereferenceable(40) %2)
  br i1 %3, label %7, label %4

4:                                                ; preds = %1
  %5 = getelementptr inbounds i8, ptr %0, i64 352
  %6 = tail call noundef zeroext i1 @_ZNK15QAbstractButton9isCheckedEv(ptr noundef nonnull align 8 dereferenceable(40) %5)
  %. = zext i1 %6 to i32
  br label %7

7:                                                ; preds = %4, %1
  %.0 = phi i32 [ -1, %1 ], [ %., %4 ]
  ret i32 %.0
}